; Function Attrs: nounwind uwtable
define noundef i32 @Patt_ManProfileErrorsOne(ptr noundef readonly captures(none) %0, i32 noundef %1) local_unnamed_addr #0 {
  %3 = tail call ptr @Patt_ManOutputErrorCoverage(ptr noundef %0, i32 noundef %1)
  %4 = getelementptr i8, ptr %0, i64 4
  %.val.i = load i32, ptr %4, align 4, !tbaa !138
  %5 = sdiv i32 %.val.i, %1
  %6 = tail call ptr @Patt_ManTransposeErrors(ptr noundef readonly %0, i32 noundef %1)
  %7 = shl nsw i32 %5, 6
  %8 = tail call ptr @Patt_ManOutputErrorCoverage(ptr noundef %6, i32 noundef %7)
  %9 = getelementptr inbounds nuw i8, ptr %6, i64 8
  %10 = load ptr, ptr %9, align 8, !tbaa !136
  %.not.i.i = icmp eq ptr %10, null
  br i1 %.not.i.i, label %Patt_ManPatternErrorCoverage.exit, label %11

11:                                               ; preds = %2
  tail call void @free(ptr noundef nonnull %10) #27
  br label %Patt_ManPatternErrorCoverage.exit

Patt_ManPatternErrorCoverage.exit:                ; preds = %2, %11
  tail call void @free(ptr noundef nonnull %6) #27
  tail call void @Patt_ManProfileErrors(ptr noundef %3, ptr noundef %8)
  %12 = getelementptr inbounds nuw i8, ptr %8, i64 8
  %13 = load ptr, ptr %12, align 8, !tbaa !32
  %.not.i = icmp eq ptr %13, null
  br i1 %.not.i, label %Vec_IntFree.exit, label %14

14:                                               ; preds = %Patt_ManPatternErrorCoverage.exit
  tail call void @free(ptr noundef nonnull %13) #27
  br label %Vec_IntFree.exit

Vec_IntFree.exit:                                 ; preds = %Patt_ManPatternErrorCoverage.exit, %14
  tail call void @free(ptr noundef nonnull %8) #27
  %15 = getelementptr inbounds nuw i8, ptr %3, i64 8
  %16 = load ptr, ptr %15, align 8, !tbaa !32
  %.not.i7 = icmp eq ptr %16, null
  br i1 %.not.i7, label %Vec_IntFree.exit8, label %17

17:                                               ; preds = %Vec_IntFree.exit
  tail call void @free(ptr noundef nonnull %16) #27
  br label %Vec_IntFree.exit8

Vec_IntFree.exit8:                                ; preds = %Vec_IntFree.exit, %17
  tail call void @free(ptr noundef nonnull %3) #27
  ret i32 1
}